; Function Attrs: nounwind sspstrong uwtable
define hidden i64 @rb_io_buffer_size(i64 noundef %0) #0 {
  %2 = tail call ptr @rb_check_typeddata(i64 noundef %0, ptr noundef nonnull @rb_io_buffer_type) #25
  %3 = getelementptr inbounds nuw i8, ptr %2, i64 8
  %4 = load i64, ptr %3, align 8, !tbaa !16
  %5 = icmp ult i64 %4, 4611686018427387904
  br i1 %5, label %6, label %9

6:                                                ; preds = %1
  %7 = shl nuw nsw i64 %4, 1
  %8 = or disjoint i64 %7, 1
  br label %rb_ull2num_inline.exit

9:                                                ; preds = %1
  %10 = tail call i64 @rb_ull2inum(i64 noundef %4) #25
  br label %rb_ull2num_inline.exit

rb_ull2num_inline.exit:                           ; preds = %6, %9
  %.0.i = phi i64 [ %8, %6 ], [ %10, %9 ]
  ret i64 %.0.i
}